target datalayout = "e-m:e-p270:32:32-p271:32:32-p272:64:64-i64:64-i128:128-f80:128-n8:16:32:64-S128"
target triple = "x86_64-pc-linux-gnu"

%struct.PJconsts = type { ptr, ptr, ptr, ptr, ptr, ptr, ptr, ptr, ptr, ptr, ptr, ptr, i32, ptr, ptr, ptr, ptr, ptr, ptr, ptr, ptr, double, double, double, double, double, double, double, double, double, double, double, double, double, double, double, double, double, double, double, double, double, double, i32, i32, i32, i32, i32, i32, i32, i32, i32, i32, i32, ptr, ptr, ptr, ptr, ptr, ptr, double, double, double, double, double, double, double, double, double, double, double, i32, [7 x double], i32, ptr, ptr, double, double, i32, [4 x i8], %"class.std::shared_ptr", i8, double, i8, %"class.std::__cxx11::basic_string", %"class.std::__cxx11::basic_string", %"class.std::__cxx11::basic_string", i8, %"class.std::vector", i32, %"class.std::vector.3", i32, i8, i8, i8, ptr }
%"class.std::shared_ptr" = type { %"class.std::__shared_ptr" }
%"class.std::__shared_ptr" = type { ptr, %"class.std::__shared_count" }
%"class.std::__shared_count" = type { ptr }
%"class.std::__cxx11::basic_string" = type { %"struct.std::__cxx11::basic_string<char>::_Alloc_hider", i64, %union.anon }
%"struct.std::__cxx11::basic_string<char>::_Alloc_hider" = type { ptr }
%union.anon = type { i64, [8 x i8] }
%"class.std::vector" = type { %"struct.std::_Vector_base" }
%"struct.std::_Vector_base" = type { %"struct.std::_Vector_base<osgeo::proj::operation::GridDescription, std::allocator<osgeo::proj::operation::GridDescription>>::_Vector_impl" }
%"struct.std::_Vector_base<osgeo::proj::operation::GridDescription, std::allocator<osgeo::proj::operation::GridDescription>>::_Vector_impl" = type { %"struct.std::_Vector_base<osgeo::proj::operation::GridDescription, std::allocator<osgeo::proj::operation::GridDescription>>::_Vector_impl_data" }
%"struct.std::_Vector_base<osgeo::proj::operation::GridDescription, std::allocator<osgeo::proj::operation::GridDescription>>::_Vector_impl_data" = type { ptr, ptr, ptr }
%"class.std::vector.3" = type { %"struct.std::_Vector_base.4" }
%"struct.std::_Vector_base.4" = type { %"struct.std::_Vector_base<PJCoordOperation, std::allocator<PJCoordOperation>>::_Vector_impl" }
%"struct.std::_Vector_base<PJCoordOperation, std::allocator<PJCoordOperation>>::_Vector_impl" = type { %"struct.std::_Vector_base<PJCoordOperation, std::allocator<PJCoordOperation>>::_Vector_impl_data" }
%"struct.std::_Vector_base<PJCoordOperation, std::allocator<PJCoordOperation>>::_Vector_impl_data" = type { ptr, ptr, ptr }
%"class.std::vector.8" = type { %"struct.std::_Vector_base.9" }
%"struct.std::_Vector_base.9" = type { %"struct.std::_Vector_base<std::unique_ptr<osgeo::proj::GenericShiftGridSet>, std::allocator<std::unique_ptr<osgeo::proj::GenericShiftGridSet>>>::_Vector_impl" }
%"struct.std::_Vector_base<std::unique_ptr<osgeo::proj::GenericShiftGridSet>, std::allocator<std::unique_ptr<osgeo::proj::GenericShiftGridSet>>>::_Vector_impl" = type { %"struct.std::_Vector_base<std::unique_ptr<osgeo::proj::GenericShiftGridSet>, std::allocator<std::unique_ptr<osgeo::proj::GenericShiftGridSet>>>::_Vector_impl_data" }
%"struct.std::_Vector_base<std::unique_ptr<osgeo::proj::GenericShiftGridSet>, std::allocator<std::unique_ptr<osgeo::proj::GenericShiftGridSet>>>::_Vector_impl_data" = type { ptr, ptr, ptr }
%"class.std::vector.13" = type { %"struct.std::_Vector_base.14" }
%"struct.std::_Vector_base.14" = type { %"struct.std::_Vector_base<std::unique_ptr<osgeo::proj::HorizontalShiftGridSet>, std::allocator<std::unique_ptr<osgeo::proj::HorizontalShiftGridSet>>>::_Vector_impl" }
%"struct.std::_Vector_base<std::unique_ptr<osgeo::proj::HorizontalShiftGridSet>, std::allocator<std::unique_ptr<osgeo::proj::HorizontalShiftGridSet>>>::_Vector_impl" = type { %"struct.std::_Vector_base<std::unique_ptr<osgeo::proj::HorizontalShiftGridSet>, std::allocator<std::unique_ptr<osgeo::proj::HorizontalShiftGridSet>>>::_Vector_impl_data" }
%"struct.std::_Vector_base<std::unique_ptr<osgeo::proj::HorizontalShiftGridSet>, std::allocator<std::unique_ptr<osgeo::proj::HorizontalShiftGridSet>>>::_Vector_impl_data" = type { ptr, ptr, ptr }
%"class.std::vector.18" = type { %"struct.std::_Vector_base.19" }
%"struct.std::_Vector_base.19" = type { %"struct.std::_Vector_base<std::unique_ptr<osgeo::proj::VerticalShiftGridSet>, std::allocator<std::unique_ptr<osgeo::proj::VerticalShiftGridSet>>>::_Vector_impl" }
%"struct.std::_Vector_base<std::unique_ptr<osgeo::proj::VerticalShiftGridSet>, std::allocator<std::unique_ptr<osgeo::proj::VerticalShiftGridSet>>>::_Vector_impl" = type { %"struct.std::_Vector_base<std::unique_ptr<osgeo::proj::VerticalShiftGridSet>, std::allocator<std::unique_ptr<osgeo::proj::VerticalShiftGridSet>>>::_Vector_impl_data" }
%"struct.std::_Vector_base<std::unique_ptr<osgeo::proj::VerticalShiftGridSet>, std::allocator<std::unique_ptr<osgeo::proj::VerticalShiftGridSet>>>::_Vector_impl_data" = type { ptr, ptr, ptr }
%"struct.(anonymous namespace)::deformationData" = type { double, double, ptr, %"class.std::vector.8", %"class.std::vector.13", %"class.std::vector.18" }
%struct.PJ_XYZ = type { double, double, double }
%union.PJ_COORD = type { [4 x double] }
%struct.PJ_XYZT = type { double, double, double, double }

; Function Attrs: mustprogress uwtable
define internal void @_ZL25pj_deformation_reverse_4dR8PJ_COORDP8PJconsts(ptr noundef nonnull align 8 dereferenceable(32) %0, ptr noundef %1) #0 {
  %3 = alloca ptr, align 8
  %4 = alloca ptr, align 8
  %5 = alloca ptr, align 8
  %6 = alloca double, align 8
  %7 = alloca %union.PJ_COORD, align 8
  %8 = alloca i32, align 4
  %9 = alloca %struct.PJ_XYZ, align 8
  store ptr %0, ptr %3, align 8, !tbaa !87
  store ptr %1, ptr %4, align 8, !tbaa !3
  call void @llvm.lifetime.start.p0(i64 8, ptr %5) #13
  %10 = load ptr, ptr %4, align 8, !tbaa !3
  %11 = getelementptr inbounds nuw %struct.PJconsts, ptr %10, i32 0, i32 11
  %12 = load ptr, ptr %11, align 8, !tbaa !43
  store ptr %12, ptr %5, align 8, !tbaa !41
  call void @llvm.lifetime.start.p0(i64 8, ptr %6) #13
  %13 = load ptr, ptr %5, align 8, !tbaa !41
  %14 = getelementptr inbounds nuw %"struct.(anonymous namespace)::deformationData", ptr %13, i32 0, i32 0
  %15 = load double, ptr %14, align 8, !tbaa !66
  %16 = fcmp une double %15, 0x7FF0000000000000
  br i1 %16, label %17, label %21

17:                                               ; preds = %2
  %18 = load ptr, ptr %5, align 8, !tbaa !41
  %19 = getelementptr inbounds nuw %"struct.(anonymous namespace)::deformationData", ptr %18, i32 0, i32 0
  %20 = load double, ptr %19, align 8, !tbaa !66
  store double %20, ptr %6, align 8, !tbaa !89
  br label %38

21:                                               ; preds = %2
  %22 = load ptr, ptr %3, align 8, !tbaa !87
  %23 = getelementptr inbounds nuw %struct.PJ_XYZT, ptr %22, i32 0, i32 3
  %24 = load double, ptr %23, align 8, !tbaa !64
  %25 = fcmp oeq double %24, 0x7FF0000000000000
  br i1 %25, label %26, label %30

26:                                               ; preds = %21
  call void @llvm.lifetime.start.p0(i64 32, ptr %7) #13
  call void @_Z16proj_coord_errorv(ptr dead_on_unwind writable sret(%union.PJ_COORD) align 8 %7)
  %27 = load ptr, ptr %3, align 8, !tbaa !87
  call void @llvm.memcpy.p0.p0.i64(ptr align 8 %27, ptr align 8 %7, i64 32, i1 false), !tbaa.struct !90
  call void @llvm.lifetime.end.p0(i64 32, ptr %7) #13
  %28 = load ptr, ptr %4, align 8, !tbaa !3
  %29 = call i32 @proj_errno_set(ptr noundef %28, i32 noundef 2055)
  store i32 1, ptr %8, align 4
  br label %43

30:                                               ; preds = %21
  %31 = load ptr, ptr %3, align 8, !tbaa !87
  %32 = getelementptr inbounds nuw %struct.PJ_XYZT, ptr %31, i32 0, i32 3
  %33 = load double, ptr %32, align 8, !tbaa !64
  %34 = load ptr, ptr %5, align 8, !tbaa !41
  %35 = getelementptr inbounds nuw %"struct.(anonymous namespace)::deformationData", ptr %34, i32 0, i32 1
  %36 = load double, ptr %35, align 8, !tbaa !67
  %37 = fsub double %33, %36
  store double %37, ptr %6, align 8, !tbaa !89
  br label %38

38:                                               ; preds = %30, %17
  call void @llvm.lifetime.start.p0(i64 24, ptr %9) #13
  %39 = load ptr, ptr %4, align 8, !tbaa !3
  %40 = load ptr, ptr %3, align 8, !tbaa !87
  %41 = load double, ptr %6, align 8, !tbaa !89
  call void @_ZL28pj_deformation_reverse_shiftP8PJconstsRK6PJ_XYZd(ptr dead_on_unwind writable sret(%struct.PJ_XYZ) align 8 %9, ptr noundef %39, ptr noundef nonnull align 8 dereferenceable(24) %40, double noundef %41)
  %42 = load ptr, ptr %3, align 8, !tbaa !87
  call void @llvm.memcpy.p0.p0.i64(ptr align 8 %42, ptr align 8 %9, i64 24, i1 false), !tbaa.struct !91
  call void @llvm.lifetime.end.p0(i64 24, ptr %9) #13
  store i32 0, ptr %8, align 4
  br label %43

43:                                               ; preds = %38, %26
  call void @llvm.lifetime.end.p0(i64 8, ptr %6) #13
  call void @llvm.lifetime.end.p0(i64 8, ptr %5) #13
  %44 = load i32, ptr %8, align 4
  switch i32 %44, label %46 [
    i32 0, label %45
    i32 1, label %45
  ]

45:                                               ; preds = %43, %43
  ret void

46:                                               ; preds = %43
  unreachable
}