; Function Attrs: mustprogress uwtable
define internal void @_ZL25pj_deformation_reverse_4dR8PJ_COORDP8PJconsts(ptr noundef nonnull align 8 captures(none) dereferenceable(32) %0, ptr noundef %1) #0 {
  %3 = alloca %union.PJ_COORD, align 8
  %4 = alloca %struct.PJ_XYZ, align 8
  %5 = getelementptr inbounds nuw i8, ptr %1, i64 88
  %6 = load ptr, ptr %5, align 8, !tbaa !40
  %7 = load double, ptr %6, align 8, !tbaa !76
  %8 = fcmp une double %7, 0x7FF0000000000000
  br i1 %8, label %19, label %9

9:                                                ; preds = %2
  %10 = getelementptr inbounds nuw i8, ptr %0, i64 24
  %11 = load double, ptr %10, align 8, !tbaa !88
  %12 = fcmp oeq double %11, 0x7FF0000000000000
  br i1 %12, label %13, label %15

13:                                               ; preds = %9
  call void @llvm.lifetime.start.p0(i64 32, ptr nonnull %3) #13
  call void @_Z16proj_coord_errorv(ptr dead_on_unwind nonnull writable sret(%union.PJ_COORD) align 8 %3)
  call void @llvm.memcpy.p0.p0.i64(ptr noundef nonnull align 8 dereferenceable(32) %0, ptr noundef nonnull align 8 dereferenceable(32) %3, i64 32, i1 false), !tbaa.struct !89
  call void @llvm.lifetime.end.p0(i64 32, ptr nonnull %3) #13
  %14 = call i32 @proj_errno_set(ptr noundef nonnull %1, i32 noundef 2055)
  br label %20

15:                                               ; preds = %9
  %16 = getelementptr inbounds nuw i8, ptr %6, i64 8
  %17 = load double, ptr %16, align 8, !tbaa !77
  %18 = fsub double %11, %17
  br label %19

19:                                               ; preds = %2, %15
  %.0 = phi double [ %18, %15 ], [ %7, %2 ]
  call void @llvm.lifetime.start.p0(i64 24, ptr nonnull %4) #13
  call fastcc void @_ZL28pj_deformation_reverse_shiftP8PJconstsRK6PJ_XYZd(ptr dead_on_unwind noalias writable align 8 %4, ptr noundef nonnull %1, ptr noundef nonnull align 8 dereferenceable(24) %0, double noundef %.0)
  call void @llvm.memcpy.p0.p0.i64(ptr noundef nonnull align 8 dereferenceable(24) %0, ptr noundef nonnull align 8 dereferenceable(24) %4, i64 24, i1 false), !tbaa.struct !91
  call void @llvm.lifetime.end.p0(i64 24, ptr nonnull %4) #13
  br label %20

20:                                               ; preds = %19, %13
  ret void
}